; Function Attrs: nofree norecurse nosync nounwind memory(readwrite, inaccessiblemem: none) uwtable
define void @stbvox_make_12_split_mesh_for_face(ptr noundef captures(none) %0, i8 %1, i32 noundef %2, i32 noundef %3, i24 %4, i32 noundef %5, ptr noundef readonly captures(none) %6, i8 noundef zeroext %7, ptr noundef readonly captures(none) %8) local_unnamed_addr #8 {
  %10 = alloca [4 x i32], align 16
  call void @llvm.lifetime.start.p0(i64 16, ptr nonnull %10) #16
  %11 = getelementptr inbounds nuw i8, ptr %8, i64 2
  %12 = load i8, ptr %11, align 1, !tbaa !3
  %13 = zext i8 %12 to i64
  %14 = getelementptr inbounds nuw i8, ptr %8, i64 1
  %15 = load i8, ptr %14, align 1, !tbaa !3
  %16 = zext i8 %15 to i64
  %17 = load i8, ptr %8, align 1, !tbaa !3
  %18 = zext i8 %17 to i64
  %19 = getelementptr inbounds nuw [4 x [4 x [4 x i8]]], ptr @stbvox_face_up_normal_012, i64 0, i64 %13, i64 %16, i64 %18
  %20 = load i8, ptr %19, align 1, !tbaa !3
  %21 = getelementptr inbounds nuw i8, ptr %8, i64 3
  %22 = load i8, ptr %21, align 1, !tbaa !3
  %23 = zext i8 %22 to i64
  %24 = getelementptr inbounds nuw [4 x [4 x [4 x i8]]], ptr @stbvox_face_up_normal_123, i64 0, i64 %23, i64 %13, i64 %16
  %25 = load i8, ptr %24, align 1, !tbaa !3
  %26 = icmp eq i32 %2, 5
  br i1 %26, label %27, label %34

27:                                               ; preds = %9
  %28 = zext i8 %20 to i64
  %29 = getelementptr inbounds nuw [32 x i8], ptr @stbvox_reverse_face, i64 0, i64 %28
  %30 = load i8, ptr %29, align 1, !tbaa !3
  %31 = zext i8 %25 to i64
  %32 = getelementptr inbounds nuw [32 x i8], ptr @stbvox_reverse_face, i64 0, i64 %31
  %33 = load i8, ptr %32, align 1, !tbaa !3
  br label %34

34:                                               ; preds = %27, %9
  %.032 = phi i8 [ %33, %27 ], [ %25, %9 ]
  %.0 = phi i8 [ %30, %27 ], [ %20, %9 ]
  %35 = getelementptr inbounds nuw i8, ptr %6, i64 8
  %36 = load i32, ptr %35, align 4, !tbaa !14
  store i32 %36, ptr %10, align 16, !tbaa !14
  %37 = getelementptr inbounds nuw i8, ptr %6, i64 12
  %38 = load i32, ptr %37, align 4, !tbaa !14
  %39 = getelementptr inbounds nuw i8, ptr %10, i64 4
  store i32 %38, ptr %39, align 4, !tbaa !14
  %40 = load i32, ptr %6, align 4, !tbaa !14
  %41 = getelementptr inbounds nuw i8, ptr %10, i64 8
  store i32 %40, ptr %41, align 8, !tbaa !14
  %42 = getelementptr inbounds nuw i8, ptr %10, i64 12
  store i32 %36, ptr %42, align 4, !tbaa !14
  %43 = zext i8 %.0 to i32
  call void @stbvox_make_mesh_for_face(ptr noundef %0, i8 %1, i32 noundef %2, i32 noundef %3, i24 poison, i32 noundef %5, ptr noundef nonnull %10, i8 noundef zeroext %7, i32 noundef %43)
  %44 = load i32, ptr %6, align 4, !tbaa !14
  store i32 %44, ptr %39, align 4, !tbaa !14
  %45 = getelementptr inbounds nuw i8, ptr %6, i64 4
  %46 = load i32, ptr %45, align 4, !tbaa !14
  store i32 %46, ptr %41, align 8, !tbaa !14
  %47 = zext i8 %.032 to i32
  call void @stbvox_make_mesh_for_face(ptr noundef %0, i8 %1, i32 noundef %2, i32 noundef %3, i24 poison, i32 noundef %5, ptr noundef nonnull %10, i8 noundef zeroext %7, i32 noundef %47)
  call void @llvm.lifetime.end.p0(i64 16, ptr nonnull %10) #16
  ret void
}